target datalayout = "e-m:e-p270:32:32-p271:32:32-p272:64:64-i64:64-i128:128-f80:128-n8:16:32:64-S128"
target triple = "x86_64-pc-linux-gnu"

%struct._packet_info = type { ptr, ptr, i32, i32, %struct.nstime_t, %struct.nstime_t, %struct.nstime_t, i8, ptr, ptr, ptr, ptr, %struct._address, %struct._address, %struct._address, %struct._address, %struct._address, %struct._address, i32, ptr, i8, [3 x i8], %struct.anon.1, i32, i32, i32, i32, ptr, i8, ptr, ptr, i16, i16, i32, i32, i16, i32, i32, ptr, ptr, ptr, i8, i8, i16, i16, i16, i32, i16, i16, ptr, ptr, ptr, ptr, ptr, i32, i32 }
%struct.nstime_t = type { i64, i32 }
%struct._address = type { i32, i32, ptr, ptr }
%struct.anon.1 = type { i8, [3 x i8] }
%struct._exp_pdu_data_t = type { i32, ptr, i32, i32, ptr }

@hf_ipcomp_next_header = internal global i32 0, align 4
@hf_ipcomp_flags = internal global i32 0, align 4
@hf_ipcomp_cpi = internal global i32 0, align 4
@ett_ipcomp = internal global i32 0, align 4
@.str.107 = private unnamed_addr constant [7 x i8] c"IPComp\00", align 1
@proto_ipcomp = internal global i32 0, align 4
@data_handle = internal global ptr null, align 8
@ip_dissector_table = internal global ptr null, align 8
@exported_pdu_tap = internal global i32 -1, align 4
@.str.229 = private unnamed_addr constant [12 x i8] c"%s (0x%02x)\00", align 1
@.str.230 = private unnamed_addr constant [16 x i8] c"IPComp (CPI=%s)\00", align 1
@.str.231 = private unnamed_addr constant [7 x i8] c"0x%04x\00", align 1
@.str.232 = private unnamed_addr constant [21 x i8] c"IPcomp inflated data\00", align 1

; Function Attrs: null_pointer_is_valid sspstrong uwtable
define internal void @export_ipsec_pdu(ptr noundef %0, ptr noundef %1, ptr noundef %2) #0 {
  %4 = alloca ptr, align 8
  %5 = alloca ptr, align 8
  %6 = alloca ptr, align 8
  %7 = alloca ptr, align 8
  store ptr %0, ptr %4, align 8
  store ptr %1, ptr %5, align 8
  store ptr %2, ptr %6, align 8
  %8 = load i32, ptr @exported_pdu_tap, align 4
  %9 = call zeroext i1 @have_tap_listener(i32 noundef %8)
  br i1 %9, label %10, label %29

10:                                               ; preds = %3
  call void @llvm.lifetime.start.p0(i64 8, ptr %7) #17
  %11 = load ptr, ptr %5, align 8
  %12 = load ptr, ptr %4, align 8
  %13 = call ptr @dissector_handle_get_dissector_name(ptr noundef %12)
  %14 = call ptr @export_pdu_create_common_tags(ptr noundef %11, ptr noundef %13, i16 noundef zeroext 12)
  store ptr %14, ptr %7, align 8
  %15 = load ptr, ptr %6, align 8
  %16 = call i32 @tvb_captured_length(ptr noundef %15)
  %17 = load ptr, ptr %7, align 8
  %18 = getelementptr inbounds nuw %struct._exp_pdu_data_t, ptr %17, i32 0, i32 2
  store i32 %16, ptr %18, align 8
  %19 = load ptr, ptr %6, align 8
  %20 = call i32 @tvb_reported_length(ptr noundef %19)
  %21 = load ptr, ptr %7, align 8
  %22 = getelementptr inbounds nuw %struct._exp_pdu_data_t, ptr %21, i32 0, i32 3
  store i32 %20, ptr %22, align 4
  %23 = load ptr, ptr %6, align 8
  %24 = load ptr, ptr %7, align 8
  %25 = getelementptr inbounds nuw %struct._exp_pdu_data_t, ptr %24, i32 0, i32 4
  store ptr %23, ptr %25, align 8
  %26 = load i32, ptr @exported_pdu_tap, align 4
  %27 = load ptr, ptr %5, align 8
  %28 = load ptr, ptr %7, align 8
  call void @tap_queue_packet(i32 noundef %26, ptr noundef %27, ptr noundef %28)
  call void @llvm.lifetime.end.p0(i64 8, ptr %7) #17
  br label %29

29:                                               ; preds = %10, %3
  ret void
}

; Function Attrs: null_pointer_is_valid sspstrong uwtable
define internal i32 @dissect_ipcomp(ptr noundef %0, ptr noundef %1, ptr noundef %2, ptr noundef %3) #0 {
  %5 = alloca ptr, align 8
  %6 = alloca ptr, align 8
  %7 = alloca ptr, align 8
  %8 = alloca ptr, align 8
  %9 = alloca ptr, align 8
  %10 = alloca ptr, align 8
  %11 = alloca i8, align 1
  %12 = alloca i32, align 4
  %13 = alloca ptr, align 8
  %14 = alloca i32, align 4
  %15 = alloca ptr, align 8
  %16 = alloca ptr, align 8
  store ptr %0, ptr %5, align 8
  store ptr %1, ptr %6, align 8
  store ptr %2, ptr %7, align 8
  store ptr %3, ptr %8, align 8
  call void @llvm.lifetime.start.p0(i64 8, ptr %9) #17
  call void @llvm.lifetime.start.p0(i64 8, ptr %10) #17
  call void @llvm.lifetime.start.p0(i64 1, ptr %11) #17
  call void @llvm.lifetime.start.p0(i64 4, ptr %12) #17
  call void @llvm.lifetime.start.p0(i64 8, ptr %13) #17
  call void @llvm.lifetime.start.p0(i64 4, ptr %14) #17
  call void @llvm.lifetime.start.p0(i64 8, ptr %15) #17
  call void @llvm.lifetime.start.p0(i64 8, ptr %16) #17
  %17 = load ptr, ptr %6, align 8
  %18 = getelementptr inbounds nuw %struct._packet_info, ptr %17, i32 0, i32 1
  %19 = load ptr, ptr %18, align 8
  call void @col_set_str(ptr noundef %19, i32 noundef 35, ptr noundef @.str.107)
  %20 = load ptr, ptr %6, align 8
  %21 = getelementptr inbounds nuw %struct._packet_info, ptr %20, i32 0, i32 1
  %22 = load ptr, ptr %21, align 8
  call void @col_clear(ptr noundef %22, i32 noundef 25)
  %23 = load ptr, ptr %5, align 8
  %24 = call zeroext i8 @tvb_get_uint8(ptr noundef %23, i32 noundef 0)
  store i8 %24, ptr %11, align 1
  %25 = load ptr, ptr %7, align 8
  %26 = load i32, ptr @proto_ipcomp, align 4
  %27 = load ptr, ptr %5, align 8
  %28 = call ptr @proto_tree_add_item(ptr noundef %25, i32 noundef %26, ptr noundef %27, i32 noundef 0, i32 noundef -1, i32 noundef 0)
  store ptr %28, ptr %10, align 8
  %29 = load ptr, ptr %10, align 8
  %30 = load i32, ptr @ett_ipcomp, align 4
  %31 = call ptr @proto_item_add_subtree(ptr noundef %29, i32 noundef %30)
  store ptr %31, ptr %9, align 8
  %32 = load ptr, ptr %9, align 8
  %33 = load i32, ptr @hf_ipcomp_next_header, align 4
  %34 = load ptr, ptr %5, align 8
  %35 = load i8, ptr %11, align 1
  %36 = zext i8 %35 to i32
  %37 = load i8, ptr %11, align 1
  %38 = zext i8 %37 to i32
  %39 = call ptr @ipprotostr(i32 noundef %38)
  %40 = load i8, ptr %11, align 1
  %41 = zext i8 %40 to i32
  %42 = call ptr (ptr, i32, ptr, i32, i32, i32, ptr, ...) @proto_tree_add_uint_format_value(ptr noundef %32, i32 noundef %33, ptr noundef %34, i32 noundef 0, i32 noundef 1, i32 noundef %36, ptr noundef @.str.229, ptr noundef %39, i32 noundef %41)
  %43 = load ptr, ptr %9, align 8
  %44 = load i32, ptr @hf_ipcomp_flags, align 4
  %45 = load ptr, ptr %5, align 8
  %46 = call ptr @proto_tree_add_item(ptr noundef %43, i32 noundef %44, ptr noundef %45, i32 noundef 1, i32 noundef 1, i32 noundef 0)
  %47 = load ptr, ptr %9, align 8
  %48 = load i32, ptr @hf_ipcomp_cpi, align 4
  %49 = load ptr, ptr %5, align 8
  %50 = call ptr @proto_tree_add_item_ret_uint(ptr noundef %47, i32 noundef %48, ptr noundef %49, i32 noundef 2, i32 noundef 2, i32 noundef 0, ptr noundef %12)
  %51 = load ptr, ptr %6, align 8
  %52 = getelementptr inbounds nuw %struct._packet_info, ptr %51, i32 0, i32 1
  %53 = load ptr, ptr %52, align 8
  %54 = load i32, ptr %12, align 4
  %55 = call ptr @val_to_str(i32 noundef %54, ptr noundef @cpi2val, ptr noundef @.str.231)
  call void (ptr, i32, ptr, ...) @col_add_fstr(ptr noundef %53, i32 noundef 25, ptr noundef @.str.230, ptr noundef %55)
  %56 = load ptr, ptr %5, align 8
  %57 = call ptr @tvb_new_subset_remaining(ptr noundef %56, i32 noundef 4)
  store ptr %57, ptr %15, align 8
  %58 = load ptr, ptr @data_handle, align 8
  %59 = load ptr, ptr %6, align 8
  %60 = load ptr, ptr %15, align 8
  call void @export_ipsec_pdu(ptr noundef %58, ptr noundef %59, ptr noundef %60)
  %61 = load ptr, ptr @data_handle, align 8
  %62 = load ptr, ptr %15, align 8
  %63 = load ptr, ptr %6, align 8
  %64 = load ptr, ptr %9, align 8
  %65 = call i32 @call_dissector(ptr noundef %61, ptr noundef %62, ptr noundef %63, ptr noundef %64)
  %66 = load ptr, ptr %15, align 8
  %67 = load ptr, ptr %15, align 8
  %68 = load ptr, ptr %15, align 8
  %69 = call i32 @tvb_captured_length(ptr noundef %68)
  %70 = call ptr @tvb_child_uncompress_zlib(ptr noundef %66, ptr noundef %67, i32 noundef 0, i32 noundef %69)
  store ptr %70, ptr %16, align 8
  %71 = load ptr, ptr %16, align 8
  %72 = icmp ne ptr %71, null
  br i1 %72, label %73, label %104

73:                                               ; preds = %4
  %74 = load ptr, ptr %6, align 8
  %75 = load ptr, ptr %16, align 8
  call void @add_new_data_source(ptr noundef %74, ptr noundef %75, ptr noundef @.str.232)
  %76 = load ptr, ptr %6, align 8
  %77 = getelementptr inbounds nuw %struct._packet_info, ptr %76, i32 0, i32 26
  %78 = load i32, ptr %77, align 4
  store i32 %78, ptr %14, align 4
  %79 = load ptr, ptr @ip_dissector_table, align 8
  %80 = load i8, ptr %11, align 1
  %81 = zext i8 %80 to i32
  %82 = call ptr @dissector_get_uint_handle(ptr noundef %79, i32 noundef %81)
  store ptr %82, ptr %13, align 8
  %83 = load ptr, ptr %13, align 8
  %84 = icmp ne ptr %83, null
  br i1 %84, label %85, label %90

85:                                               ; preds = %73
  %86 = load i8, ptr %11, align 1
  %87 = zext i8 %86 to i32
  %88 = load ptr, ptr %6, align 8
  %89 = getelementptr inbounds nuw %struct._packet_info, ptr %88, i32 0, i32 26
  store i32 %87, ptr %89, align 4
  br label %92

90:                                               ; preds = %73
  %91 = load ptr, ptr @data_handle, align 8
  store ptr %91, ptr %13, align 8
  br label %92

92:                                               ; preds = %90, %85
  %93 = load ptr, ptr %13, align 8
  %94 = load ptr, ptr %6, align 8
  %95 = load ptr, ptr %16, align 8
  call void @export_ipsec_pdu(ptr noundef %93, ptr noundef %94, ptr noundef %95)
  %96 = load ptr, ptr %13, align 8
  %97 = load ptr, ptr %16, align 8
  %98 = load ptr, ptr %6, align 8
  %99 = load ptr, ptr %7, align 8
  %100 = call i32 @call_dissector(ptr noundef %96, ptr noundef %97, ptr noundef %98, ptr noundef %99)
  %101 = load i32, ptr %14, align 4
  %102 = load ptr, ptr %6, align 8
  %103 = getelementptr inbounds nuw %struct._packet_info, ptr %102, i32 0, i32 26
  store i32 %101, ptr %103, align 4
  br label %104

104:                                              ; preds = %92, %4
  %105 = load ptr, ptr %5, align 8
  %106 = call i32 @tvb_captured_length(ptr noundef %105)
  call void @llvm.lifetime.end.p0(i64 8, ptr %16) #17
  call void @llvm.lifetime.end.p0(i64 8, ptr %15) #17
  call void @llvm.lifetime.end.p0(i64 4, ptr %14) #17
  call void @llvm.lifetime.end.p0(i64 8, ptr %13) #17
  call void @llvm.lifetime.end.p0(i64 4, ptr %12) #17
  call void @llvm.lifetime.end.p0(i64 1, ptr %11) #17
  call void @llvm.lifetime.end.p0(i64 8, ptr %10) #17
  call void @llvm.lifetime.end.p0(i64 8, ptr %9) #17
  ret i32 %106
}