; Function Attrs: null_pointer_is_valid sspstrong uwtable
define internal i32 @dissect_ipcomp(ptr noundef %0, ptr noundef %1, ptr noundef %2, ptr readnone captures(none) %3) #0 {
  %5 = alloca i32, align 4
  call void @llvm.lifetime.start.p0(i64 4, ptr nonnull %5) #20
  %6 = getelementptr inbounds nuw i8, ptr %1, i64 8
  %7 = load ptr, ptr %6, align 8
  tail call void @col_set_str(ptr noundef %7, i32 noundef 35, ptr noundef nonnull @.str.107)
  %8 = load ptr, ptr %6, align 8
  tail call void @col_clear(ptr noundef %8, i32 noundef 25)
  %9 = tail call zeroext i8 @tvb_get_uint8(ptr noundef %0, i32 noundef 0)
  %10 = load i32, ptr @proto_ipcomp, align 4
  %11 = tail call ptr @proto_tree_add_item(ptr noundef %2, i32 noundef %10, ptr noundef %0, i32 noundef 0, i32 noundef -1, i32 noundef 0)
  %12 = load i32, ptr @ett_ipcomp, align 4
  %13 = tail call ptr @proto_item_add_subtree(ptr noundef %11, i32 noundef %12)
  %14 = load i32, ptr @hf_ipcomp_next_header, align 4
  %15 = zext i8 %9 to i32
  %16 = tail call ptr @ipprotostr(i32 noundef %15)
  %17 = tail call ptr (ptr, i32, ptr, i32, i32, i32, ptr, ...) @proto_tree_add_uint_format_value(ptr noundef %13, i32 noundef %14, ptr noundef %0, i32 noundef 0, i32 noundef 1, i32 noundef %15, ptr noundef nonnull @.str.229, ptr noundef %16, i32 noundef %15)
  %18 = load i32, ptr @hf_ipcomp_flags, align 4
  %19 = tail call ptr @proto_tree_add_item(ptr noundef %13, i32 noundef %18, ptr noundef %0, i32 noundef 1, i32 noundef 1, i32 noundef 0)
  %20 = load i32, ptr @hf_ipcomp_cpi, align 4
  %21 = call ptr @proto_tree_add_item_ret_uint(ptr noundef %13, i32 noundef %20, ptr noundef %0, i32 noundef 2, i32 noundef 2, i32 noundef 0, ptr noundef nonnull %5)
  %22 = load ptr, ptr %6, align 8
  %23 = load i32, ptr %5, align 4
  %24 = call ptr @val_to_str(i32 noundef %23, ptr noundef nonnull @cpi2val, ptr noundef nonnull @.str.231)
  call void (ptr, i32, ptr, ...) @col_add_fstr(ptr noundef %22, i32 noundef 25, ptr noundef nonnull @.str.230, ptr noundef %24)
  %25 = call ptr @tvb_new_subset_remaining(ptr noundef %0, i32 noundef 4)
  %26 = load ptr, ptr @data_handle, align 8
  %27 = load i32, ptr @exported_pdu_tap, align 4
  %28 = call zeroext i1 @have_tap_listener(i32 noundef %27)
  br i1 %28, label %29, label %export_ipsec_pdu.exit

29:                                               ; preds = %4
  %30 = call ptr @dissector_handle_get_dissector_name(ptr noundef %26)
  %31 = call ptr @export_pdu_create_common_tags(ptr noundef %1, ptr noundef %30, i16 noundef zeroext 12)
  %32 = call i32 @tvb_captured_length(ptr noundef %25)
  %33 = getelementptr inbounds nuw i8, ptr %31, i64 16
  store i32 %32, ptr %33, align 8
  %34 = call i32 @tvb_reported_length(ptr noundef %25)
  %35 = getelementptr inbounds nuw i8, ptr %31, i64 20
  store i32 %34, ptr %35, align 4
  %36 = getelementptr inbounds nuw i8, ptr %31, i64 24
  store ptr %25, ptr %36, align 8
  %37 = load i32, ptr @exported_pdu_tap, align 4
  call void @tap_queue_packet(i32 noundef %37, ptr noundef %1, ptr noundef %31)
  br label %export_ipsec_pdu.exit

export_ipsec_pdu.exit:                            ; preds = %4, %29
  %38 = load ptr, ptr @data_handle, align 8
  %39 = call i32 @call_dissector(ptr noundef %38, ptr noundef %25, ptr noundef %1, ptr noundef %13)
  %40 = call i32 @tvb_captured_length(ptr noundef %25)
  %41 = call ptr @tvb_child_uncompress_zlib(ptr noundef %25, ptr noundef %25, i32 noundef 0, i32 noundef %40)
  %.not = icmp eq ptr %41, null
  br i1 %.not, label %63, label %42

42:                                               ; preds = %export_ipsec_pdu.exit
  call void @add_new_data_source(ptr noundef %1, ptr noundef nonnull %41, ptr noundef nonnull @.str.232)
  %43 = getelementptr inbounds nuw i8, ptr %1, i64 292
  %44 = load i32, ptr %43, align 4
  %45 = load ptr, ptr @ip_dissector_table, align 8
  %46 = call ptr @dissector_get_uint_handle(ptr noundef %45, i32 noundef %15)
  %.not44 = icmp eq ptr %46, null
  br i1 %.not44, label %48, label %47

47:                                               ; preds = %42
  store i32 %15, ptr %43, align 4
  br label %50

48:                                               ; preds = %42
  %49 = load ptr, ptr @data_handle, align 8
  br label %50

50:                                               ; preds = %48, %47
  %.0 = phi ptr [ %46, %47 ], [ %49, %48 ]
  %51 = load i32, ptr @exported_pdu_tap, align 4
  %52 = call zeroext i1 @have_tap_listener(i32 noundef %51)
  br i1 %52, label %53, label %export_ipsec_pdu.exit45

53:                                               ; preds = %50
  %54 = call ptr @dissector_handle_get_dissector_name(ptr noundef %.0)
  %55 = call ptr @export_pdu_create_common_tags(ptr noundef %1, ptr noundef %54, i16 noundef zeroext 12)
  %56 = call i32 @tvb_captured_length(ptr noundef nonnull %41)
  %57 = getelementptr inbounds nuw i8, ptr %55, i64 16
  store i32 %56, ptr %57, align 8
  %58 = call i32 @tvb_reported_length(ptr noundef nonnull %41)
  %59 = getelementptr inbounds nuw i8, ptr %55, i64 20
  store i32 %58, ptr %59, align 4
  %60 = getelementptr inbounds nuw i8, ptr %55, i64 24
  store ptr %41, ptr %60, align 8
  %61 = load i32, ptr @exported_pdu_tap, align 4
  call void @tap_queue_packet(i32 noundef %61, ptr noundef %1, ptr noundef %55)
  br label %export_ipsec_pdu.exit45

export_ipsec_pdu.exit45:                          ; preds = %50, %53
  %62 = call i32 @call_dissector(ptr noundef %.0, ptr noundef nonnull %41, ptr noundef %1, ptr noundef %2)
  store i32 %44, ptr %43, align 4
  br label %63

63:                                               ; preds = %export_ipsec_pdu.exit45, %export_ipsec_pdu.exit
  %64 = call i32 @tvb_captured_length(ptr noundef %0)
  call void @llvm.lifetime.end.p0(i64 4, ptr nonnull %5) #20
  ret i32 %64
}